target datalayout = "e-m:e-p270:32:32-p271:32:32-p272:64:64-i64:64-i128:128-f80:128-n8:16:32:64-S128"
target triple = "x86_64-pc-linux-gnu"

%struct.timeval = type { i64, i64 }
%struct._logentry = type { i32, i8, i16, i64, %struct.timeval, i32, [0 x %union.anon] }
%union.anon = type { i8 }
%struct.sockaddr_in6 = type { i16, i16, i32, %struct.in6_addr, i32 }
%struct.in6_addr = type { %union.anon.9 }
%union.anon.9 = type { [4 x i32] }
%struct.logentry_conn_event = type { i32, i32, i32, %struct.sockaddr_in6 }
%struct.sockaddr_in = type { i16, i16, %struct.in_addr, [8 x i8] }
%struct.in_addr = type { i32 }

@.str.48 = private unnamed_addr constant [5 x i8] c"unix\00", align 1
@__const._logger_parse_cce.transport_map = private unnamed_addr constant [3 x ptr] [ptr @.str.44, ptr @.str.45, ptr @.str.46], align 16
@__const._logger_parse_cce.reason_map = private unnamed_addr constant [4 x ptr] [ptr @.str.49, ptr @.str.50, ptr @.str.51, ptr @.str.52], align 16
@.str.53 = private unnamed_addr constant [84 x i8] c"ts=%lld.%d gid=%llu type=conn_close rip=%s rport=%hu transport=%s reason=%s cfd=%d\0A\00", align 1

; Function Attrs: inlinehint nounwind uwtable
define internal zeroext i16 @__bswap_16(i16 noundef zeroext %0) #10 {
  %2 = alloca i16, align 2
  store i16 %0, ptr %2, align 2, !tbaa !38
  %3 = load i16, ptr %2, align 2, !tbaa !38
  %4 = zext i16 %3 to i32
  %5 = ashr i32 %4, 8
  %6 = and i32 %5, 255
  %7 = load i16, ptr %2, align 2, !tbaa !38
  %8 = zext i16 %7 to i32
  %9 = and i32 %8, 255
  %10 = shl i32 %9, 8
  %11 = or i32 %6, %10
  %12 = trunc i32 %11 to i16
  ret i16 %12
}

; Function Attrs: nounwind uwtable
define internal i32 @_logger_util_addr_endpoint(ptr noundef %0, ptr noundef %1, i64 noundef %2, ptr noundef %3) #0 {
  %5 = alloca ptr, align 8
  %6 = alloca ptr, align 8
  %7 = alloca i64, align 8
  %8 = alloca ptr, align 8
  store ptr %0, ptr %5, align 8, !tbaa !120
  store ptr %1, ptr %6, align 8, !tbaa !63
  store i64 %2, ptr %7, align 8, !tbaa !4
  store ptr %3, ptr %8, align 8, !tbaa !132
  %9 = load ptr, ptr %6, align 8, !tbaa !63
  %10 = load i64, ptr %7, align 8, !tbaa !4
  call void @llvm.memset.p0.i64(ptr align 1 %9, i8 0, i64 %10, i1 false)
  %11 = load ptr, ptr %8, align 8, !tbaa !132
  store i16 0, ptr %11, align 2, !tbaa !38
  %12 = load ptr, ptr %5, align 8, !tbaa !120
  %13 = getelementptr inbounds nuw %struct.sockaddr_in6, ptr %12, i32 0, i32 0
  %14 = load i16, ptr %13, align 4, !tbaa !134
  %15 = zext i16 %14 to i32
  switch i32 %15, label %45 [
    i32 2, label %16
    i32 10, label %29
    i32 0, label %42
    i32 1, label %42
  ]

16:                                               ; preds = %4
  %17 = load ptr, ptr %5, align 8, !tbaa !120
  %18 = getelementptr inbounds nuw %struct.sockaddr_in, ptr %17, i32 0, i32 2
  %19 = load ptr, ptr %6, align 8, !tbaa !63
  %20 = load i64, ptr %7, align 8, !tbaa !4
  %21 = sub i64 %20, 1
  %22 = trunc i64 %21 to i32
  %23 = call ptr @inet_ntop(i32 noundef 2, ptr noundef %18, ptr noundef %19, i32 noundef %22) #11
  %24 = load ptr, ptr %5, align 8, !tbaa !120
  %25 = getelementptr inbounds nuw %struct.sockaddr_in, ptr %24, i32 0, i32 1
  %26 = load i16, ptr %25, align 2, !tbaa !135
  %27 = call zeroext i16 @__bswap_16(i16 noundef zeroext %26)
  %28 = load ptr, ptr %8, align 8, !tbaa !132
  store i16 %27, ptr %28, align 2, !tbaa !38
  br label %45

29:                                               ; preds = %4
  %30 = load ptr, ptr %5, align 8, !tbaa !120
  %31 = getelementptr inbounds nuw %struct.sockaddr_in6, ptr %30, i32 0, i32 3
  %32 = load ptr, ptr %6, align 8, !tbaa !63
  %33 = load i64, ptr %7, align 8, !tbaa !4
  %34 = sub i64 %33, 1
  %35 = trunc i64 %34 to i32
  %36 = call ptr @inet_ntop(i32 noundef 10, ptr noundef %31, ptr noundef %32, i32 noundef %35) #11
  %37 = load ptr, ptr %5, align 8, !tbaa !120
  %38 = getelementptr inbounds nuw %struct.sockaddr_in6, ptr %37, i32 0, i32 1
  %39 = load i16, ptr %38, align 2, !tbaa !138
  %40 = call zeroext i16 @__bswap_16(i16 noundef zeroext %39)
  %41 = load ptr, ptr %8, align 8, !tbaa !132
  store i16 %40, ptr %41, align 2, !tbaa !38
  br label %45

42:                                               ; preds = %4, %4
  %43 = load ptr, ptr %6, align 8, !tbaa !63
  %44 = call ptr @strncpy(ptr noundef %43, ptr noundef @.str.48, i64 noundef 5) #11
  br label %45

45:                                               ; preds = %4, %42, %29, %16
  ret i32 0
}

; Function Attrs: nounwind uwtable
define internal i32 @_logger_parse_cce(ptr noundef %0, ptr noundef %1) #0 {
  %3 = alloca ptr, align 8
  %4 = alloca ptr, align 8
  %5 = alloca i32, align 4
  %6 = alloca i16, align 2
  %7 = alloca [64 x i8], align 16
  %8 = alloca ptr, align 8
  %9 = alloca [3 x ptr], align 16
  %10 = alloca [4 x ptr], align 16
  store ptr %0, ptr %3, align 8, !tbaa !33
  store ptr %1, ptr %4, align 8, !tbaa !63
  call void @llvm.lifetime.start.p0(i64 4, ptr %5) #11
  call void @llvm.lifetime.start.p0(i64 2, ptr %6) #11
  store i16 0, ptr %6, align 2, !tbaa !38
  call void @llvm.lifetime.start.p0(i64 64, ptr %7) #11
  call void @llvm.lifetime.start.p0(i64 8, ptr %8) #11
  %11 = load ptr, ptr %3, align 8, !tbaa !33
  %12 = getelementptr inbounds nuw %struct._logentry, ptr %11, i32 0, i32 6
  %13 = getelementptr inbounds [0 x %union.anon], ptr %12, i64 0, i64 0
  store ptr %13, ptr %8, align 8, !tbaa !122
  call void @llvm.lifetime.start.p0(i64 24, ptr %9) #11
  call void @llvm.memcpy.p0.p0.i64(ptr align 16 %9, ptr align 16 @__const._logger_parse_cce.transport_map, i64 24, i1 false)
  call void @llvm.lifetime.start.p0(i64 32, ptr %10) #11
  call void @llvm.memcpy.p0.p0.i64(ptr align 16 %10, ptr align 16 @__const._logger_parse_cce.reason_map, i64 32, i1 false)
  %14 = load ptr, ptr %8, align 8, !tbaa !122
  %15 = getelementptr inbounds nuw %struct.logentry_conn_event, ptr %14, i32 0, i32 3
  %16 = getelementptr inbounds [64 x i8], ptr %7, i64 0, i64 0
  %17 = call i32 @_logger_util_addr_endpoint(ptr noundef %15, ptr noundef %16, i64 noundef 64, ptr noundef %6)
  %18 = load ptr, ptr %4, align 8, !tbaa !63
  %19 = load ptr, ptr %3, align 8, !tbaa !33
  %20 = getelementptr inbounds nuw %struct._logentry, ptr %19, i32 0, i32 4
  %21 = getelementptr inbounds nuw %struct.timeval, ptr %20, i32 0, i32 0
  %22 = load i64, ptr %21, align 8, !tbaa !108
  %23 = load ptr, ptr %3, align 8, !tbaa !33
  %24 = getelementptr inbounds nuw %struct._logentry, ptr %23, i32 0, i32 4
  %25 = getelementptr inbounds nuw %struct.timeval, ptr %24, i32 0, i32 1
  %26 = load i64, ptr %25, align 8, !tbaa !109
  %27 = trunc i64 %26 to i32
  %28 = load ptr, ptr %3, align 8, !tbaa !33
  %29 = getelementptr inbounds nuw %struct._logentry, ptr %28, i32 0, i32 3
  %30 = load i64, ptr %29, align 8, !tbaa !4
  %31 = getelementptr inbounds [64 x i8], ptr %7, i64 0, i64 0
  %32 = load i16, ptr %6, align 2, !tbaa !38
  %33 = zext i16 %32 to i32
  %34 = load ptr, ptr %8, align 8, !tbaa !122
  %35 = getelementptr inbounds nuw %struct.logentry_conn_event, ptr %34, i32 0, i32 0
  %36 = load i32, ptr %35, align 4, !tbaa !126
  %37 = sext i32 %36 to i64
  %38 = getelementptr inbounds [3 x ptr], ptr %9, i64 0, i64 %37
  %39 = load ptr, ptr %38, align 8, !tbaa !63
  %40 = load ptr, ptr %8, align 8, !tbaa !122
  %41 = getelementptr inbounds nuw %struct.logentry_conn_event, ptr %40, i32 0, i32 1
  %42 = load i32, ptr %41, align 4, !tbaa !127
  %43 = sext i32 %42 to i64
  %44 = getelementptr inbounds [4 x ptr], ptr %10, i64 0, i64 %43
  %45 = load ptr, ptr %44, align 8, !tbaa !63
  %46 = load ptr, ptr %8, align 8, !tbaa !122
  %47 = getelementptr inbounds nuw %struct.logentry_conn_event, ptr %46, i32 0, i32 2
  %48 = load i32, ptr %47, align 4, !tbaa !124
  %49 = call i32 (ptr, i64, ptr, ...) @snprintf(ptr noundef %18, i64 noundef 4096, ptr noundef @.str.53, i64 noundef %22, i32 noundef %27, i64 noundef %30, ptr noundef %31, i32 noundef %33, ptr noundef %39, ptr noundef %45, i32 noundef %48) #11
  store i32 %49, ptr %5, align 4, !tbaa !11
  %50 = load i32, ptr %5, align 4, !tbaa !11
  call void @llvm.lifetime.end.p0(i64 32, ptr %10) #11
  call void @llvm.lifetime.end.p0(i64 24, ptr %9) #11
  call void @llvm.lifetime.end.p0(i64 8, ptr %8) #11
  call void @llvm.lifetime.end.p0(i64 64, ptr %7) #11
  call void @llvm.lifetime.end.p0(i64 2, ptr %6) #11
  call void @llvm.lifetime.end.p0(i64 4, ptr %5) #11
  ret i32 %50
}